target datalayout = "e-m:e-p270:32:32-p271:32:32-p272:64:64-i64:64-i128:128-f80:128-n8:16:32:64-S128"
target triple = "x86_64-unknown-linux-gnu"

%"class.std::shared_ptr" = type { %"class.std::__shared_ptr" }
%"class.std::__shared_ptr" = type { ptr, %"class.std::__shared_count" }
%"class.std::__shared_count" = type { ptr }
%"struct.std::_Vector_base.35" = type { %"struct.std::_Vector_base<std::shared_ptr<const facebook::velox::Type>, std::allocator<std::shared_ptr<const facebook::velox::Type>>>::_Vector_impl" }
%"struct.std::_Vector_base<std::shared_ptr<const facebook::velox::Type>, std::allocator<std::shared_ptr<const facebook::velox::Type>>>::_Vector_impl" = type { %"struct.std::_Vector_base<std::shared_ptr<const facebook::velox::Type>, std::allocator<std::shared_ptr<const facebook::velox::Type>>>::_Vector_impl_data" }
%"struct.std::_Vector_base<std::shared_ptr<const facebook::velox::Type>, std::allocator<std::shared_ptr<const facebook::velox::Type>>>::_Vector_impl_data" = type { ptr, ptr, ptr }

; Function Attrs: mustprogress uwtable
define void @_ZN8facebook5velox4exec23SwitchCallToSpecialForm11resolveTypeERKSt6vectorISt10shared_ptrIKNS0_4TypeEESaIS7_EE(ptr noalias sret(%"class.std::shared_ptr") align 8 %agg.result, ptr noundef nonnull align 8 dereferenceable(8) %this, ptr noundef nonnull align 8 dereferenceable(24) %argTypes) unnamed_addr #0 align 2 {
entry:
  %result.ptr = alloca ptr, align 8
  %this.addr = alloca ptr, align 8
  %argTypes.addr = alloca ptr, align 8
  store ptr %agg.result, ptr %result.ptr, align 8
  store ptr %this, ptr %this.addr, align 8
  store ptr %argTypes, ptr %argTypes.addr, align 8
  %0 = load ptr, ptr %argTypes.addr, align 8
  call void @_ZN8facebook5velox4exec10SwitchExpr11resolveTypeERKSt6vectorISt10shared_ptrIKNS0_4TypeEESaIS7_EE(ptr sret(%"class.std::shared_ptr") align 8 %agg.result, ptr noundef nonnull align 8 dereferenceable(24) %0)
  ret void
}

; Function Attrs: mustprogress nounwind uwtable
define linkonce_odr noundef i64 @_ZNKSt6vectorISt10shared_ptrIKN8facebook5velox4TypeEESaIS5_EE4sizeEv(ptr noundef nonnull align 8 dereferenceable(24) %this) #1 comdat align 2 {
entry:
  %this.addr = alloca ptr, align 8
  store ptr %this, ptr %this.addr, align 8
  %this1 = load ptr, ptr %this.addr, align 8
  %_M_impl = getelementptr inbounds %"struct.std::_Vector_base.35", ptr %this1, i32 0, i32 0
  %_M_finish = getelementptr inbounds %"struct.std::_Vector_base<std::shared_ptr<const facebook::velox::Type>, std::allocator<std::shared_ptr<const facebook::velox::Type>>>::_Vector_impl_data", ptr %_M_impl, i32 0, i32 1
  %0 = load ptr, ptr %_M_finish, align 8
  %_M_impl2 = getelementptr inbounds %"struct.std::_Vector_base.35", ptr %this1, i32 0, i32 0
  %_M_start = getelementptr inbounds %"struct.std::_Vector_base<std::shared_ptr<const facebook::velox::Type>, std::allocator<std::shared_ptr<const facebook::velox::Type>>>::_Vector_impl_data", ptr %_M_impl2, i32 0, i32 0
  %1 = load ptr, ptr %_M_start, align 8
  %sub.ptr.lhs.cast = ptrtoint ptr %0 to i64
  %sub.ptr.rhs.cast = ptrtoint ptr %1 to i64
  %sub.ptr.sub = sub i64 %sub.ptr.lhs.cast, %sub.ptr.rhs.cast
  %sub.ptr.div = sdiv exact i64 %sub.ptr.sub, 16
  ret i64 %sub.ptr.div
}

; Function Attrs: mustprogress uwtable
define void @_ZN8facebook5velox4exec19IfCallToSpecialForm11resolveTypeERKSt6vectorISt10shared_ptrIKNS0_4TypeEESaIS7_EE(ptr noalias sret(%"class.std::shared_ptr") align 8 %agg.result, ptr noundef nonnull align 8 dereferenceable(8) %this, ptr noundef nonnull align 8 dereferenceable(24) %argTypes) unnamed_addr #0 align 2 {
entry:
  %result.ptr = alloca ptr, align 8
  %this.addr = alloca ptr, align 8
  %argTypes.addr = alloca ptr, align 8
  store ptr %agg.result, ptr %result.ptr, align 8
  store ptr %this, ptr %this.addr, align 8
  store ptr %argTypes, ptr %argTypes.addr, align 8
  %this1 = load ptr, ptr %this.addr, align 8
  %0 = load ptr, ptr %argTypes.addr, align 8
  %call = call noundef i64 @_ZNKSt6vectorISt10shared_ptrIKN8facebook5velox4TypeEESaIS5_EE4sizeEv(ptr noundef nonnull align 8 dereferenceable(24) %0) #14
  %cmp = icmp eq i64 %call, 3
  %lnot = xor i1 %cmp, true
  br i1 %lnot, label %if.then, label %if.end

if.then:                                          ; preds = %entry
  call void @llvm.trap()
  br label %if.end

if.end:                                           ; preds = %if.then, %entry
  %1 = load ptr, ptr %argTypes.addr, align 8
  call void @_ZN8facebook5velox4exec23SwitchCallToSpecialForm11resolveTypeERKSt6vectorISt10shared_ptrIKNS0_4TypeEESaIS7_EE(ptr sret(%"class.std::shared_ptr") align 8 %agg.result, ptr noundef nonnull align 8 dereferenceable(8) %this1, ptr noundef nonnull align 8 dereferenceable(24) %1)
  ret void
}